-----BEGIN ENCRYPTED PRIVATE KEY-----
MIIFNTBfBgkqhkiG9w0BBQ0wUjAxBgkqhkiG9w0BBQwwJAQQydGQiWxJ72S2G0vg
94WTFAICCAAwDAYIKoZIhvcNAgkFADAdBglghkgBZQMEASoEEO5ZW4xYYQcKWpie
sFmR/YUEggTQ1wMKLIOksbAnUX4dFnBtfKt1z8vLc4dt2sdKvbREKFDDDp501Nre
cvJWZ6Q1gOIAxmIj4p0liILZ54/iCus3otsI8VvUVD7lGss0JOe69PDiJOAbo6pQ
pdZGzkSZB5dqR8vr1PRvWG6yNhNj+l59RJ7b1XvKXzHaQcfgrMbrqNUHwseYKKfX
/6g9e4I1AmCJm37KBRWd6+F74V3ws3oC5KZrayM1nVGVamZjJdBvPqlJKZZR8tDM
HV0X/yvVJs1BZcBArTRNNoA1BWevPJ0trB3gcjw8wHmDYOCexIbc4SWZlPyziKJD
Pfk/ZOyl6L7KGXld68LcCFtGtk+drn6vuawBGQRsvyoO5Ohwgr7N3zv8qyvFbwP2
A7glCavfA4JhU1jDl9jaPaUrhC1IOlNPAKYOPZg0VfIOuuiQEjjWVRrwVmU26lgs
2eHYsTarG9up4zkn9IhA+Rso8eanvI3cWClzB/chkAbO5TAyDNJdkcZ7v55qRtxA
ap3JcJIV8a5UbtcZ76r5QTTdoqVGMOP+WwwZkjyZlQau0ZZq5la41OizOrTaKSfD
qDimVdYIVgCFd8uwyPqulNlnv11uU9buxUL5q565m97MphML2gbLNkddYSAWmqsE
jIVCrtn7sF09FPMedHcMfT4SBbezDJLLuRpeCNYFdRWwg+sAYTB0r3tiQyk8/1X+
npRRwD29ucNvJK2g+mTwFazaELYy27mAZgO6kTpIy14KEL8K+slTGTvasuBAOo0h
g0RZxgZOLChcevbsMKYU+8bRmqCDEMfAsqEDfBWYouS7cSbcNRZ5bZ8TlczZHcex
knjlQhsQ3icolyXgHgodb3uhxCpxKUi6vhvotWuTy77O39+YOjDqAR4SvDp3GSDA
HUap4A9Xj/c+vaFxH6gYVY5VntCsgi7lukMlGkaY7YwArf+4To90gEoQzRt6blmb
2Jln9i744STz1718aMmgEqQ+l9b0CjZdvBQ3Q2tW84tQHOw2niKCulhJXunDHdRy
5wsenin+CVUc3krdRzUkufkUsA3MgikdbWJ8wJMOoFktK+MWaRvcuKzp7GIvP4sU
fMrb+1DHSdvYZglY9NCAOn9lf9iMFjKuG3fJKCYs8pzPugEKh7hpiEVmIaiW86rG
wnKxxyFFSnUIbn9C+hmmF/D90+2B7nkxTIDIq6KV+ow2ciaBLEP0bIUTRyjb5Xim
dJIvIE7Nnt/e1QenSFP/GR/TPNvC3nw6QkNdasHqj9AHT9cmrz2STEPh7kjbQhTd
6EuPmlvLCYSqyK98WfLlYh+pBznIW767w5FBgfpuAFKU9oZP9H9mYbjNoCMRBfK4
tpthHobFJHSIQFProcqB6kxy0TX9vEv+9BdfIhadXDCFWjDSptifEkElspOFkdvg
vw2VvrTFIYlGdQ89SGsm6WROYRanrjuBjY0YlmlhJviaIFsBRTKrGSzDxuEJvZY8
iR9hPhuldMmf4fWj5ZFTk726V5rfznkjFetXSSNpreMaxb9Z7IEIleDnfs/57U6x
cvokLaistqR61zsxrrJ2wrL9pMqY49jnFE7kGq6i1avJDdT6zOC0xRRx5ywrQxUL
8UD3qb1vDEAtylvuKQL7/Y8FmeY/mEPpzOpJ8miysC7shK/079ESq1E=
-----END ENCRYPTED PRIVATE KEY-----
Certificate:
    Data:
        Version: 3 (0x2)
        Serial Number:
            20:aa:6b:e9:60:bb:4e:86:0c:5c:e5:d4:93:f6:42:7b:83:93:97:60
        Signature Algorithm: sha256WithRSAEncryption
        Issuer: DC=org, DC=simple, O=Simple Inc, CN=Simple Signing CA
        Validity
            Not Before: May 18 23:11:24 2025 GMT
            Not After : May 18 23:11:24 2027 GMT
        Subject: DC=org, DC=simple, O=Simple Inc, CN=Team AlphaGo/emailAddress=alphago@simple.org
        Subject Public Key Info:
            Public Key Algorithm: rsaEncryption
                Public-Key: (2048 bit)
                Modulus:
                    00:e0:0d:f3:95:b3:29:1d:dc:99:86:1f:be:ba:bd:
                    74:0e:0b:85:9e:a0:4d:be:d7:5e:ae:47:9c:92:9c:
                    9f:7b:be:25:ed:ea:bb:7b:0c:41:8e:0c:46:7f:4b:
                    1e:2d:6b:f5:c4:d0:9e:21:b7:70:81:4d:5a:28:32:
                    8f:9a:58:da:9c:3f:02:68:91:fd:be:72:dd:a9:42:
                    e5:c7:55:fc:91:83:2c:7f:29:4a:52:dc:0c:76:e6:
                    47:d8:91:4d:dc:d7:8c:b7:9d:71:cf:57:21:07:a6:
                    e4:f9:25:25:bb:fc:cb:cb:7c:7b:7d:ea:52:e9:74:
                    ed:67:0c:4b:15:01:45:86:87:88:c7:15:a7:fa:c5:
                    ae:19:14:6b:fa:5e:c7:5b:6d:ca:5a:1d:62:e4:45:
                    9f:f9:ec:8a:e4:ab:52:22:92:96:d5:30:09:f9:43:
                    bd:14:bc:e3:d0:ab:31:bb:db:ae:9b:5f:8a:62:00:
                    17:05:e6:f9:d7:ed:ac:c9:13:02:c9:76:70:05:22:
                    6e:74:45:c3:78:be:c7:48:19:1d:aa:6d:48:80:ef:
                    d0:2b:d8:6c:d3:e7:70:9e:60:4d:5d:75:bd:ce:07:
                    df:44:34:88:94:26:aa:f1:3c:83:1e:0d:41:06:2d:
                    56:6b:39:ee:93:48:18:4e:d3:ad:b9:b9:9a:15:93:
                    60:d3
                Exponent: 65537 (0x10001)
        X509v3 extensions:
            X509v3 Key Usage: critical
                Digital Signature, Key Encipherment
            X509v3 Basic Constraints: 
                CA:FALSE
            X509v3 Extended Key Usage: 
                E-mail Protection, TLS Web Client Authentication
            X509v3 Subject Key Identifier: 
                D8:CB:88:00:75:46:0B:55:38:04:2E:6E:2C:EE:8D:ED:3A:08:5E:38
            X509v3 Authority Key Identifier: 
                35:0A:37:2B:17:30:FE:BA:6D:06:A8:B6:D9:21:9F:22:AF:12:B8:1B
            X509v3 Subject Alternative Name: 
                email:alphago@simple.org
    Signature Algorithm: sha256WithRSAEncryption
    Signature Value:
        78:c0:49:0a:42:d1:48:a8:16:15:76:9d:95:5b:06:32:cb:b6:
        9c:f3:32:d3:de:f2:5b:a1:ee:b2:df:c6:42:98:89:a3:7c:73:
        a3:8b:35:f1:b2:6d:b7:8d:01:d3:6b:c4:02:20:7f:da:a4:15:
        fa:7a:82:75:3e:88:51:92:31:3d:21:be:95:9e:c9:b3:3d:59:
        58:63:5f:0f:2a:8c:1b:aa:52:25:83:a4:d1:ce:a9:90:09:4a:
        d8:63:c5:08:e9:94:43:bf:31:00:a0:55:95:b4:f8:d8:56:05:
        9b:3e:79:79:30:f1:65:65:85:5c:25:cf:66:c4:c0:b2:98:9a:
        1a:fd:43:e3:5a:9f:3e:54:03:9e:ba:3f:4f:1f:b7:54:16:d9:
        9d:1e:bc:2e:af:61:55:89:a5:3e:1a:70:9b:bf:0d:bd:9e:b0:
        84:a8:86:3c:a2:09:c0:cc:a9:8f:64:9c:2f:de:62:30:10:c0:
        3e:7c:66:24:32:26:bc:a1:ea:23:8f:b7:8d:9a:cd:6d:42:ae:
        37:ba:66:42:60:9f:5a:31:55:85:8a:ad:ca:d4:fc:1c:8b:f5:
        cf:06:08:5e:bd:53:b1:38:dc:13:f7:2b:bc:6a:cc:a2:e3:38:
        b1:f4:3d:84:0b:7d:c8:1e:b7:63:b6:06:54:8f:82:ad:a2:b4:
        0c:a7:6c:ca
-----BEGIN CERTIFICATE-----
MIIEBTCCAu2gAwIBAgIUIKpr6WC7ToYMXOXUk/ZCe4OTl2AwDQYJKoZIhvcNAQEL
BQAwXjETMBEGCgmSJomT8ixkARkWA29yZzEWMBQGCgmSJomT8ixkARkWBnNpbXBs
ZTETMBEGA1UECgwKU2ltcGxlIEluYzEaMBgGA1UEAwwRU2ltcGxlIFNpZ25pbmcg
Q0EwHhcNMjUwNTE4MjMxMTI0WhcNMjcwNTE4MjMxMTI0WjB8MRMwEQYKCZImiZPy
LGQBGRYDb3JnMRYwFAYKCZImiZPyLGQBGRYGc2ltcGxlMRMwEQYDVQQKDApTaW1w
bGUgSW5jMRUwEwYDVQQDDAxUZWFtIEFscGhhR28xITAfBgkqhkiG9w0BCQEWEmFs
cGhhZ29Ac2ltcGxlLm9yZzCCASIwDQYJKoZIhvcNAQEBBQADggEPADCCAQoCggEB
AOAN85WzKR3cmYYfvrq9dA4LhZ6gTb7XXq5HnJKcn3u+Je3qu3sMQY4MRn9LHi1r
9cTQniG3cIFNWigyj5pY2pw/AmiR/b5y3alC5cdV/JGDLH8pSlLcDHbmR9iRTdzX
jLedcc9XIQem5PklJbv8y8t8e33qUul07WcMSxUBRYaHiMcVp/rFrhkUa/pex1tt
ylodYuRFn/nsiuSrUiKSltUwCflDvRS849CrMbvbrptfimIAFwXm+dftrMkTAsl2
cAUibnRFw3i+x0gZHaptSIDv0CvYbNPncJ5gTV11vc4H30Q0iJQmqvE8gx4NQQYt
Vms57pNIGE7Trbm5mhWTYNMCAwEAAaOBnDCBmTAOBgNVHQ8BAf8EBAMCBaAwCQYD
VR0TBAIwADAdBgNVHSUEFjAUBggrBgEFBQcDBAYIKwYBBQUHAwIwHQYDVR0OBBYE
FNjLiAB1RgtVOAQubizuje06CF44MB8GA1UdIwQYMBaAFDUKNysXMP66bQaottkh
nyKvErgbMB0GA1UdEQQWMBSBEmFscGhhZ29Ac2ltcGxlLm9yZzANBgkqhkiG9w0B
AQsFAAOCAQEAeMBJCkLRSKgWFXadlVsGMsu2nPMy097yW6Hust/GQpiJo3xzo4s1
8bJtt40B02vEAiB/2qQV+nqCdT6IUZIxPSG+lZ7Jsz1ZWGNfDyqMG6pSJYOk0c6p
kAlK2GPFCOmUQ78xAKBVlbT42FYFmz55eTDxZWWFXCXPZsTAspiaGv1D41qfPlQD
nro/Tx+3VBbZnR68Lq9hVYmlPhpwm78NvZ6whKiGPKIJwMypj2ScL95iMBDAPnxm
JDImvKHqI4+3jZrNbUKuN7pmQmCfWjFVhYqtytT8HIv1zwYIXr1TsTjcE/crvGrM
ouM4sfQ9hAt9yB63Y7YGVI+CraK0DKdsyg==
-----END CERTIFICATE-----
