Certificate:
    Data:
        Version: 3 (0x2)
        Serial Number:
            13:24:84:62:0c:a6:6c:59:69:5d:8c:90:2a:24:4f:6e:a9:98:94:95
        Signature Algorithm: sha256WithRSAEncryption
        Issuer: DC=org, DC=simple, O=Simple Inc, CN=Simple Root CA
        Validity
            Not Before: May 18 23:09:07 2025 GMT
            Not After : May 18 23:09:07 2035 GMT
        Subject: DC=org, DC=simple, O=Simple Inc, CN=Simple Signing CA
        Subject Public Key Info:
            Public Key Algorithm: rsaEncryption
                Public-Key: (2048 bit)
                Modulus:
                    00:a6:61:00:ca:e8:6b:e4:dc:5d:fe:f3:37:07:1e:
                    33:be:71:50:ed:3b:13:57:25:52:05:bf:f8:16:35:
                    1d:75:6f:42:64:b6:9b:42:cc:a5:43:10:a5:e5:10:
                    4c:c2:92:22:b3:3c:34:fd:e8:55:31:c9:26:8f:f3:
                    05:da:3a:6c:08:fe:67:15:f2:da:b2:13:23:0f:29:
                    09:b8:ca:63:9c:5f:2b:88:cc:8b:21:e8:c7:d1:e1:
                    7e:35:1a:9c:01:fc:3c:7b:46:f1:4e:c0:1f:e7:db:
                    61:63:44:83:a1:d8:05:15:c1:1d:a2:f6:0a:1b:84:
                    9e:ff:cb:ad:e5:1a:f1:2d:ae:a1:b5:7e:91:af:0e:
                    2b:8c:68:a4:df:87:bc:ae:b7:0d:6a:a8:09:1f:ae:
                    5d:3d:99:b2:bd:de:e2:80:18:5c:55:42:d1:c5:83:
                    df:05:b6:ca:24:01:e5:39:5f:54:e2:17:29:3e:50:
                    79:0b:7b:f7:0f:8d:01:c6:5b:11:95:53:e8:fd:ef:
                    33:be:fe:1a:03:6e:d3:2f:8c:7e:97:06:37:4b:3d:
                    24:b4:0a:fd:12:95:1e:4a:ba:cb:12:2e:80:7b:5c:
                    2d:f3:8b:50:6e:07:92:3b:56:3b:8a:6a:b1:40:06:
                    e0:f5:3e:0a:34:7e:8e:e2:9f:59:f9:3e:ad:2c:df:
                    9a:7f
                Exponent: 65537 (0x10001)
        X509v3 extensions:
            X509v3 Key Usage: critical
                Certificate Sign, CRL Sign
            X509v3 Basic Constraints: critical
                CA:TRUE, pathlen:0
            X509v3 Subject Key Identifier: 
                35:0A:37:2B:17:30:FE:BA:6D:06:A8:B6:D9:21:9F:22:AF:12:B8:1B
            X509v3 Authority Key Identifier: 
                15:A0:82:80:40:CF:9B:CA:ED:A4:29:F1:D3:BC:06:3E:D8:91:1C:30
    Signature Algorithm: sha256WithRSAEncryption
    Signature Value:
        7f:dd:02:33:23:58:cc:2b:d1:1a:e7:82:12:8b:94:b1:3b:a5:
        8e:f2:96:e1:28:a7:b9:0c:e6:d3:0d:eb:ac:c9:c1:a5:8e:da:
        ef:ba:9d:14:cd:7d:4b:1f:10:d7:63:9c:ff:67:a4:22:56:e3:
        2e:aa:ff:c7:54:a4:b0:31:48:2d:c6:fa:02:f1:a0:1b:d3:cc:
        00:2a:70:db:07:15:90:fa:73:5a:dc:74:ad:72:d8:3c:73:e6:
        64:60:8c:e6:72:56:af:ef:16:4b:f5:88:33:ff:f5:1d:49:18:
        2e:09:86:ce:14:fc:aa:0d:2e:85:cd:9f:8b:a0:75:05:02:4b:
        93:9c:00:2b:aa:69:d8:24:f6:5c:25:d6:4d:47:82:dd:25:48:
        5d:e4:a1:35:00:b6:d5:14:7a:a1:e1:3f:23:7b:04:b2:f7:ce:
        b4:9e:fd:20:e4:a1:3a:b2:f1:46:56:97:4c:9e:4c:47:9f:3c:
        1a:4c:89:d2:d7:e7:7b:9b:61:77:48:77:af:88:ed:bf:3d:a2:
        71:c1:3d:0f:62:4d:d5:e9:61:68:9d:6b:74:47:f8:a8:7b:f5:
        07:0c:2a:f5:68:3f:fa:b8:0f:63:4d:89:fe:7b:60:c1:8b:c2:
        89:96:0d:51:10:3d:e1:fc:e0:dc:86:20:a5:cd:40:4d:95:b3:
        b4:39:84:30
-----BEGIN CERTIFICATE-----
MIIDrTCCApWgAwIBAgIUEySEYgymbFlpXYyQKiRPbqmYlJUwDQYJKoZIhvcNAQEL
BQAwWzETMBEGCgmSJomT8ixkARkWA29yZzEWMBQGCgmSJomT8ixkARkWBnNpbXBs
ZTETMBEGA1UECgwKU2ltcGxlIEluYzEXMBUGA1UEAwwOU2ltcGxlIFJvb3QgQ0Ew
HhcNMjUwNTE4MjMwOTA3WhcNMzUwNTE4MjMwOTA3WjBeMRMwEQYKCZImiZPyLGQB
GRYDb3JnMRYwFAYKCZImiZPyLGQBGRYGc2ltcGxlMRMwEQYDVQQKDApTaW1wbGUg
SW5jMRowGAYDVQQDDBFTaW1wbGUgU2lnbmluZyBDQTCCASIwDQYJKoZIhvcNAQEB
BQADggEPADCCAQoCggEBAKZhAMroa+TcXf7zNwceM75xUO07E1clUgW/+BY1HXVv
QmS2m0LMpUMQpeUQTMKSIrM8NP3oVTHJJo/zBdo6bAj+ZxXy2rITIw8pCbjKY5xf
K4jMiyHox9HhfjUanAH8PHtG8U7AH+fbYWNEg6HYBRXBHaL2ChuEnv/LreUa8S2u
obV+ka8OK4xopN+HvK63DWqoCR+uXT2Zsr3e4oAYXFVC0cWD3wW2yiQB5TlfVOIX
KT5QeQt79w+NAcZbEZVT6P3vM77+GgNu0y+MfpcGN0s9JLQK/RKVHkq6yxIugHtc
LfOLUG4HkjtWO4pqsUAG4PU+CjR+juKfWfk+rSzfmn8CAwEAAaNmMGQwDgYDVR0P
AQH/BAQDAgEGMBIGA1UdEwEB/wQIMAYBAf8CAQAwHQYDVR0OBBYEFDUKNysXMP66
bQaottkhnyKvErgbMB8GA1UdIwQYMBaAFBWggoBAz5vK7aQp8dO8Bj7YkRwwMA0G
CSqGSIb3DQEBCwUAA4IBAQB/3QIzI1jMK9Ea54ISi5SxO6WO8pbhKKe5DObTDeus
ycGljtrvup0UzX1LHxDXY5z/Z6QiVuMuqv/HVKSwMUgtxvoC8aAb08wAKnDbBxWQ
+nNa3HStctg8c+ZkYIzmclav7xZL9Ygz//UdSRguCYbOFPyqDS6FzZ+LoHUFAkuT
nAArqmnYJPZcJdZNR4LdJUhd5KE1ALbVFHqh4T8jewSy9860nv0g5KE6svFGVpdM
nkxHnzwaTInS1+d7m2F3SHeviO2/PaJxwT0PYk3V6WFonWt0R/ioe/UHDCr1aD/6
uA9jTYn+e2DBi8KJlg1RED3h/ODchiClzUBNlbO0OYQw
-----END CERTIFICATE-----
Certificate:
    Data:
        Version: 3 (0x2)
        Serial Number:
            61:a7:18:45:76:0d:f3:6f:47:1a:f5:a6:32:70:2f:7c:ce:0a:aa:da
        Signature Algorithm: sha256WithRSAEncryption
        Issuer: DC=org, DC=simple, O=Simple Inc, CN=Simple Root CA
        Validity
            Not Before: May 18 23:08:14 2025 GMT
            Not After : May 18 23:08:14 2035 GMT
        Subject: DC=org, DC=simple, O=Simple Inc, CN=Simple Root CA
        Subject Public Key Info:
            Public Key Algorithm: rsaEncryption
                Public-Key: (2048 bit)
                Modulus:
                    00:ab:2c:a3:8f:a3:55:a7:f8:bf:08:1a:c2:94:dc:
                    28:6e:56:56:32:c7:f5:b8:1a:9e:d0:ef:42:79:e4:
                    b8:2e:de:ec:a4:07:8a:72:06:9d:f2:8d:15:d0:98:
                    9e:38:c6:5c:6e:34:79:c8:1d:df:6c:23:44:c5:9c:
                    45:c7:44:5f:2e:83:00:93:b5:90:1f:62:5a:11:92:
                    7e:41:56:6a:31:48:fc:04:63:19:75:01:ee:b3:ad:
                    a2:14:14:ed:59:7f:cf:cf:3a:f1:84:01:75:75:17:
                    6b:6c:ce:9d:01:f7:de:3b:41:01:ae:7d:84:56:f8:
                    f6:d7:bc:d4:43:d0:19:af:9f:9b:7c:1e:18:24:06:
                    b9:55:95:2f:1a:6d:ed:34:32:09:e7:c9:14:3a:5c:
                    2a:1a:a8:ad:6f:b3:63:e0:ea:45:b1:23:10:18:3f:
                    37:7a:4a:68:34:01:b1:ce:74:29:90:1a:f9:5c:6e:
                    22:71:6f:8d:a8:67:5e:70:16:53:64:c1:a4:b0:9f:
                    30:14:8b:30:b2:f4:d8:fd:98:3f:62:de:73:61:b3:
                    37:17:6c:0c:df:8a:f7:9c:95:03:99:50:22:13:a5:
                    6c:5b:c9:54:b6:b9:01:20:dd:86:8c:84:e3:ed:5c:
                    f3:38:4c:e9:cc:35:f3:5d:58:a4:55:03:91:cf:3c:
                    82:ad
                Exponent: 65537 (0x10001)
        X509v3 extensions:
            X509v3 Key Usage: critical
                Certificate Sign, CRL Sign
            X509v3 Basic Constraints: critical
                CA:TRUE
            X509v3 Subject Key Identifier: 
                15:A0:82:80:40:CF:9B:CA:ED:A4:29:F1:D3:BC:06:3E:D8:91:1C:30
            X509v3 Authority Key Identifier: 
                15:A0:82:80:40:CF:9B:CA:ED:A4:29:F1:D3:BC:06:3E:D8:91:1C:30
    Signature Algorithm: sha256WithRSAEncryption
    Signature Value:
        22:f0:1b:19:d1:54:1e:e9:bd:47:84:dc:f9:3d:38:78:e6:1c:
        f0:9e:47:c5:d5:15:c7:f4:5c:a4:ac:f2:01:f7:9a:86:f9:9d:
        6f:14:1e:51:c0:45:0b:88:d8:a9:dc:b4:29:dc:8a:15:33:63:
        c3:48:40:33:2c:c2:e9:d3:f9:02:33:3b:6b:a1:ca:8b:63:df:
        35:b7:b2:8c:23:bd:30:77:bb:7a:d5:02:31:4a:88:e6:4d:b3:
        ea:5d:b5:0a:37:97:86:e3:2c:be:e0:73:59:fa:c3:09:0d:cb:
        e7:a5:a1:39:1b:f1:90:ae:82:89:40:7c:76:90:92:b0:af:e1:
        76:2d:c1:aa:08:d3:da:8b:92:16:26:68:dd:04:42:42:68:bb:
        ec:9c:ab:00:64:35:ba:3c:6d:1c:e9:c5:a4:51:3e:73:76:40:
        4b:b5:d4:e8:16:66:e7:90:23:fc:d3:4e:9b:f5:00:6e:51:74:
        44:b3:79:d7:81:cc:55:4c:9c:ee:14:dd:79:92:c4:e9:ca:6f:
        85:41:46:84:13:67:da:87:e9:88:cc:04:c5:67:7d:02:c9:22:
        f5:14:8d:46:8b:40:3a:bd:d9:e9:be:95:2d:00:7d:ad:d0:77:
        1d:64:42:80:07:ee:61:13:46:16:b1:11:d3:8d:ca:9a:b3:89:
        63:eb:3c:f6
-----BEGIN CERTIFICATE-----
MIIDpzCCAo+gAwIBAgIUYacYRXYN829HGvWmMnAvfM4KqtowDQYJKoZIhvcNAQEL
BQAwWzETMBEGCgmSJomT8ixkARkWA29yZzEWMBQGCgmSJomT8ixkARkWBnNpbXBs
ZTETMBEGA1UECgwKU2ltcGxlIEluYzEXMBUGA1UEAwwOU2ltcGxlIFJvb3QgQ0Ew
HhcNMjUwNTE4MjMwODE0WhcNMzUwNTE4MjMwODE0WjBbMRMwEQYKCZImiZPyLGQB
GRYDb3JnMRYwFAYKCZImiZPyLGQBGRYGc2ltcGxlMRMwEQYDVQQKDApTaW1wbGUg
SW5jMRcwFQYDVQQDDA5TaW1wbGUgUm9vdCBDQTCCASIwDQYJKoZIhvcNAQEBBQAD
ggEPADCCAQoCggEBAKsso4+jVaf4vwgawpTcKG5WVjLH9bgantDvQnnkuC7e7KQH
inIGnfKNFdCYnjjGXG40ecgd32wjRMWcRcdEXy6DAJO1kB9iWhGSfkFWajFI/ARj
GXUB7rOtohQU7Vl/z8868YQBdXUXa2zOnQH33jtBAa59hFb49te81EPQGa+fm3we
GCQGuVWVLxpt7TQyCefJFDpcKhqorW+zY+DqRbEjEBg/N3pKaDQBsc50KZAa+Vxu
InFvjahnXnAWU2TBpLCfMBSLMLL02P2YP2Lec2GzNxdsDN+K95yVA5lQIhOlbFvJ
VLa5ASDdhoyE4+1c8zhM6cw1811YpFUDkc88gq0CAwEAAaNjMGEwDgYDVR0PAQH/
BAQDAgEGMA8GA1UdEwEB/wQFMAMBAf8wHQYDVR0OBBYEFBWggoBAz5vK7aQp8dO8
Bj7YkRwwMB8GA1UdIwQYMBaAFBWggoBAz5vK7aQp8dO8Bj7YkRwwMA0GCSqGSIb3
DQEBCwUAA4IBAQAi8BsZ0VQe6b1HhNz5PTh45hzwnkfF1RXH9FykrPIB95qG+Z1v
FB5RwEULiNip3LQp3IoVM2PDSEAzLMLp0/kCMztrocqLY981t7KMI70wd7t61QIx
SojmTbPqXbUKN5eG4yy+4HNZ+sMJDcvnpaE5G/GQroKJQHx2kJKwr+F2LcGqCNPa
i5IWJmjdBEJCaLvsnKsAZDW6PG0c6cWkUT5zdkBLtdToFmbnkCP8006b9QBuUXRE
s3nXgcxVTJzuFN15ksTpym+FQUaEE2fah+mIzATFZ30CySL1FI1Gi0A6vdnpvpUt
AH2t0HcdZEKAB+5hE0YWsRHTjcqas4lj6zz2
-----END CERTIFICATE-----
