Certificate:
    Data:
        Version: 3 (0x2)
        Serial Number:
            13:24:84:62:0c:a6:6c:59:69:5d:8c:90:2a:24:4f:6e:a9:98:94:95
        Signature Algorithm: sha256WithRSAEncryption
        Issuer: DC=org, DC=simple, O=Simple Inc, CN=Simple Root CA
        Validity
            Not Before: May 18 23:09:07 2025 GMT
            Not After : May 18 23:09:07 2035 GMT
        Subject: DC=org, DC=simple, O=Simple Inc, CN=Simple Signing CA
        Subject Public Key Info:
            Public Key Algorithm: rsaEncryption
                Public-Key: (2048 bit)
                Modulus:
                    00:a6:61:00:ca:e8:6b:e4:dc:5d:fe:f3:37:07:1e:
                    33:be:71:50:ed:3b:13:57:25:52:05:bf:f8:16:35:
                    1d:75:6f:42:64:b6:9b:42:cc:a5:43:10:a5:e5:10:
                    4c:c2:92:22:b3:3c:34:fd:e8:55:31:c9:26:8f:f3:
                    05:da:3a:6c:08:fe:67:15:f2:da:b2:13:23:0f:29:
                    09:b8:ca:63:9c:5f:2b:88:cc:8b:21:e8:c7:d1:e1:
                    7e:35:1a:9c:01:fc:3c:7b:46:f1:4e:c0:1f:e7:db:
                    61:63:44:83:a1:d8:05:15:c1:1d:a2:f6:0a:1b:84:
                    9e:ff:cb:ad:e5:1a:f1:2d:ae:a1:b5:7e:91:af:0e:
                    2b:8c:68:a4:df:87:bc:ae:b7:0d:6a:a8:09:1f:ae:
                    5d:3d:99:b2:bd:de:e2:80:18:5c:55:42:d1:c5:83:
                    df:05:b6:ca:24:01:e5:39:5f:54:e2:17:29:3e:50:
                    79:0b:7b:f7:0f:8d:01:c6:5b:11:95:53:e8:fd:ef:
                    33:be:fe:1a:03:6e:d3:2f:8c:7e:97:06:37:4b:3d:
                    24:b4:0a:fd:12:95:1e:4a:ba:cb:12:2e:80:7b:5c:
                    2d:f3:8b:50:6e:07:92:3b:56:3b:8a:6a:b1:40:06:
                    e0:f5:3e:0a:34:7e:8e:e2:9f:59:f9:3e:ad:2c:df:
                    9a:7f
                Exponent: 65537 (0x10001)
        X509v3 extensions:
            X509v3 Key Usage: critical
                Certificate Sign, CRL Sign
            X509v3 Basic Constraints: critical
                CA:TRUE, pathlen:0
            X509v3 Subject Key Identifier: 
                35:0A:37:2B:17:30:FE:BA:6D:06:A8:B6:D9:21:9F:22:AF:12:B8:1B
            X509v3 Authority Key Identifier: 
                15:A0:82:80:40:CF:9B:CA:ED:A4:29:F1:D3:BC:06:3E:D8:91:1C:30
    Signature Algorithm: sha256WithRSAEncryption
    Signature Value:
        7f:dd:02:33:23:58:cc:2b:d1:1a:e7:82:12:8b:94:b1:3b:a5:
        8e:f2:96:e1:28:a7:b9:0c:e6:d3:0d:eb:ac:c9:c1:a5:8e:da:
        ef:ba:9d:14:cd:7d:4b:1f:10:d7:63:9c:ff:67:a4:22:56:e3:
        2e:aa:ff:c7:54:a4:b0:31:48:2d:c6:fa:02:f1:a0:1b:d3:cc:
        00:2a:70:db:07:15:90:fa:73:5a:dc:74:ad:72:d8:3c:73:e6:
        64:60:8c:e6:72:56:af:ef:16:4b:f5:88:33:ff:f5:1d:49:18:
        2e:09:86:ce:14:fc:aa:0d:2e:85:cd:9f:8b:a0:75:05:02:4b:
        93:9c:00:2b:aa:69:d8:24:f6:5c:25:d6:4d:47:82:dd:25:48:
        5d:e4:a1:35:00:b6:d5:14:7a:a1:e1:3f:23:7b:04:b2:f7:ce:
        b4:9e:fd:20:e4:a1:3a:b2:f1:46:56:97:4c:9e:4c:47:9f:3c:
        1a:4c:89:d2:d7:e7:7b:9b:61:77:48:77:af:88:ed:bf:3d:a2:
        71:c1:3d:0f:62:4d:d5:e9:61:68:9d:6b:74:47:f8:a8:7b:f5:
        07:0c:2a:f5:68:3f:fa:b8:0f:63:4d:89:fe:7b:60:c1:8b:c2:
        89:96:0d:51:10:3d:e1:fc:e0:dc:86:20:a5:cd:40:4d:95:b3:
        b4:39:84:30
-----BEGIN CERTIFICATE-----
MIIDrTCCApWgAwIBAgIUEySEYgymbFlpXYyQKiRPbqmYlJUwDQYJKoZIhvcNAQEL
BQAwWzETMBEGCgmSJomT8ixkARkWA29yZzEWMBQGCgmSJomT8ixkARkWBnNpbXBs
ZTETMBEGA1UECgwKU2ltcGxlIEluYzEXMBUGA1UEAwwOU2ltcGxlIFJvb3QgQ0Ew
HhcNMjUwNTE4MjMwOTA3WhcNMzUwNTE4MjMwOTA3WjBeMRMwEQYKCZImiZPyLGQB
GRYDb3JnMRYwFAYKCZImiZPyLGQBGRYGc2ltcGxlMRMwEQYDVQQKDApTaW1wbGUg
SW5jMRowGAYDVQQDDBFTaW1wbGUgU2lnbmluZyBDQTCCASIwDQYJKoZIhvcNAQEB
BQADggEPADCCAQoCggEBAKZhAMroa+TcXf7zNwceM75xUO07E1clUgW/+BY1HXVv
QmS2m0LMpUMQpeUQTMKSIrM8NP3oVTHJJo/zBdo6bAj+ZxXy2rITIw8pCbjKY5xf
K4jMiyHox9HhfjUanAH8PHtG8U7AH+fbYWNEg6HYBRXBHaL2ChuEnv/LreUa8S2u
obV+ka8OK4xopN+HvK63DWqoCR+uXT2Zsr3e4oAYXFVC0cWD3wW2yiQB5TlfVOIX
KT5QeQt79w+NAcZbEZVT6P3vM77+GgNu0y+MfpcGN0s9JLQK/RKVHkq6yxIugHtc
LfOLUG4HkjtWO4pqsUAG4PU+CjR+juKfWfk+rSzfmn8CAwEAAaNmMGQwDgYDVR0P
AQH/BAQDAgEGMBIGA1UdEwEB/wQIMAYBAf8CAQAwHQYDVR0OBBYEFDUKNysXMP66
bQaottkhnyKvErgbMB8GA1UdIwQYMBaAFBWggoBAz5vK7aQp8dO8Bj7YkRwwMA0G
CSqGSIb3DQEBCwUAA4IBAQB/3QIzI1jMK9Ea54ISi5SxO6WO8pbhKKe5DObTDeus
ycGljtrvup0UzX1LHxDXY5z/Z6QiVuMuqv/HVKSwMUgtxvoC8aAb08wAKnDbBxWQ
+nNa3HStctg8c+ZkYIzmclav7xZL9Ygz//UdSRguCYbOFPyqDS6FzZ+LoHUFAkuT
nAArqmnYJPZcJdZNR4LdJUhd5KE1ALbVFHqh4T8jewSy9860nv0g5KE6svFGVpdM
nkxHnzwaTInS1+d7m2F3SHeviO2/PaJxwT0PYk3V6WFonWt0R/ioe/UHDCr1aD/6
uA9jTYn+e2DBi8KJlg1RED3h/ODchiClzUBNlbO0OYQw
-----END CERTIFICATE-----
