Certificate:
    Data:
        Version: 3 (0x2)
        Serial Number:
            61:a7:18:45:76:0d:f3:6f:47:1a:f5:a6:32:70:2f:7c:ce:0a:aa:da
        Signature Algorithm: sha256WithRSAEncryption
        Issuer: DC=org, DC=simple, O=Simple Inc, CN=Simple Root CA
        Validity
            Not Before: May 18 23:08:14 2025 GMT
            Not After : May 18 23:08:14 2035 GMT
        Subject: DC=org, DC=simple, O=Simple Inc, CN=Simple Root CA
        Subject Public Key Info:
            Public Key Algorithm: rsaEncryption
                Public-Key: (2048 bit)
                Modulus:
                    00:ab:2c:a3:8f:a3:55:a7:f8:bf:08:1a:c2:94:dc:
                    28:6e:56:56:32:c7:f5:b8:1a:9e:d0:ef:42:79:e4:
                    b8:2e:de:ec:a4:07:8a:72:06:9d:f2:8d:15:d0:98:
                    9e:38:c6:5c:6e:34:79:c8:1d:df:6c:23:44:c5:9c:
                    45:c7:44:5f:2e:83:00:93:b5:90:1f:62:5a:11:92:
                    7e:41:56:6a:31:48:fc:04:63:19:75:01:ee:b3:ad:
                    a2:14:14:ed:59:7f:cf:cf:3a:f1:84:01:75:75:17:
                    6b:6c:ce:9d:01:f7:de:3b:41:01:ae:7d:84:56:f8:
                    f6:d7:bc:d4:43:d0:19:af:9f:9b:7c:1e:18:24:06:
                    b9:55:95:2f:1a:6d:ed:34:32:09:e7:c9:14:3a:5c:
                    2a:1a:a8:ad:6f:b3:63:e0:ea:45:b1:23:10:18:3f:
                    37:7a:4a:68:34:01:b1:ce:74:29:90:1a:f9:5c:6e:
                    22:71:6f:8d:a8:67:5e:70:16:53:64:c1:a4:b0:9f:
                    30:14:8b:30:b2:f4:d8:fd:98:3f:62:de:73:61:b3:
                    37:17:6c:0c:df:8a:f7:9c:95:03:99:50:22:13:a5:
                    6c:5b:c9:54:b6:b9:01:20:dd:86:8c:84:e3:ed:5c:
                    f3:38:4c:e9:cc:35:f3:5d:58:a4:55:03:91:cf:3c:
                    82:ad
                Exponent: 65537 (0x10001)
        X509v3 extensions:
            X509v3 Key Usage: critical
                Certificate Sign, CRL Sign
            X509v3 Basic Constraints: critical
                CA:TRUE
            X509v3 Subject Key Identifier: 
                15:A0:82:80:40:CF:9B:CA:ED:A4:29:F1:D3:BC:06:3E:D8:91:1C:30
            X509v3 Authority Key Identifier: 
                15:A0:82:80:40:CF:9B:CA:ED:A4:29:F1:D3:BC:06:3E:D8:91:1C:30
    Signature Algorithm: sha256WithRSAEncryption
    Signature Value:
        22:f0:1b:19:d1:54:1e:e9:bd:47:84:dc:f9:3d:38:78:e6:1c:
        f0:9e:47:c5:d5:15:c7:f4:5c:a4:ac:f2:01:f7:9a:86:f9:9d:
        6f:14:1e:51:c0:45:0b:88:d8:a9:dc:b4:29:dc:8a:15:33:63:
        c3:48:40:33:2c:c2:e9:d3:f9:02:33:3b:6b:a1:ca:8b:63:df:
        35:b7:b2:8c:23:bd:30:77:bb:7a:d5:02:31:4a:88:e6:4d:b3:
        ea:5d:b5:0a:37:97:86:e3:2c:be:e0:73:59:fa:c3:09:0d:cb:
        e7:a5:a1:39:1b:f1:90:ae:82:89:40:7c:76:90:92:b0:af:e1:
        76:2d:c1:aa:08:d3:da:8b:92:16:26:68:dd:04:42:42:68:bb:
        ec:9c:ab:00:64:35:ba:3c:6d:1c:e9:c5:a4:51:3e:73:76:40:
        4b:b5:d4:e8:16:66:e7:90:23:fc:d3:4e:9b:f5:00:6e:51:74:
        44:b3:79:d7:81:cc:55:4c:9c:ee:14:dd:79:92:c4:e9:ca:6f:
        85:41:46:84:13:67:da:87:e9:88:cc:04:c5:67:7d:02:c9:22:
        f5:14:8d:46:8b:40:3a:bd:d9:e9:be:95:2d:00:7d:ad:d0:77:
        1d:64:42:80:07:ee:61:13:46:16:b1:11:d3:8d:ca:9a:b3:89:
        63:eb:3c:f6
-----BEGIN CERTIFICATE-----
MIIDpzCCAo+gAwIBAgIUYacYRXYN829HGvWmMnAvfM4KqtowDQYJKoZIhvcNAQEL
BQAwWzETMBEGCgmSJomT8ixkARkWA29yZzEWMBQGCgmSJomT8ixkARkWBnNpbXBs
ZTETMBEGA1UECgwKU2ltcGxlIEluYzEXMBUGA1UEAwwOU2ltcGxlIFJvb3QgQ0Ew
HhcNMjUwNTE4MjMwODE0WhcNMzUwNTE4MjMwODE0WjBbMRMwEQYKCZImiZPyLGQB
GRYDb3JnMRYwFAYKCZImiZPyLGQBGRYGc2ltcGxlMRMwEQYDVQQKDApTaW1wbGUg
SW5jMRcwFQYDVQQDDA5TaW1wbGUgUm9vdCBDQTCCASIwDQYJKoZIhvcNAQEBBQAD
ggEPADCCAQoCggEBAKsso4+jVaf4vwgawpTcKG5WVjLH9bgantDvQnnkuC7e7KQH
inIGnfKNFdCYnjjGXG40ecgd32wjRMWcRcdEXy6DAJO1kB9iWhGSfkFWajFI/ARj
GXUB7rOtohQU7Vl/z8868YQBdXUXa2zOnQH33jtBAa59hFb49te81EPQGa+fm3we
GCQGuVWVLxpt7TQyCefJFDpcKhqorW+zY+DqRbEjEBg/N3pKaDQBsc50KZAa+Vxu
InFvjahnXnAWU2TBpLCfMBSLMLL02P2YP2Lec2GzNxdsDN+K95yVA5lQIhOlbFvJ
VLa5ASDdhoyE4+1c8zhM6cw1811YpFUDkc88gq0CAwEAAaNjMGEwDgYDVR0PAQH/
BAQDAgEGMA8GA1UdEwEB/wQFMAMBAf8wHQYDVR0OBBYEFBWggoBAz5vK7aQp8dO8
Bj7YkRwwMB8GA1UdIwQYMBaAFBWggoBAz5vK7aQp8dO8Bj7YkRwwMA0GCSqGSIb3
DQEBCwUAA4IBAQAi8BsZ0VQe6b1HhNz5PTh45hzwnkfF1RXH9FykrPIB95qG+Z1v
FB5RwEULiNip3LQp3IoVM2PDSEAzLMLp0/kCMztrocqLY981t7KMI70wd7t61QIx
SojmTbPqXbUKN5eG4yy+4HNZ+sMJDcvnpaE5G/GQroKJQHx2kJKwr+F2LcGqCNPa
i5IWJmjdBEJCaLvsnKsAZDW6PG0c6cWkUT5zdkBLtdToFmbnkCP8006b9QBuUXRE
s3nXgcxVTJzuFN15ksTpym+FQUaEE2fah+mIzATFZ30CySL1FI1Gi0A6vdnpvpUt
AH2t0HcdZEKAB+5hE0YWsRHTjcqas4lj6zz2
-----END CERTIFICATE-----
